; Function Attrs: mustprogress uwtable
define void @_ZN5Ipopt11DenseVector8ScalImplEd(ptr nocapture noundef nonnull align 8 dereferenceable(248) %0, double noundef %1) unnamed_addr #0 align 2 {
  %3 = getelementptr inbounds i8, ptr %0, i64 233
  %4 = load i8, ptr %3, align 1
  %5 = and i8 %4, 1
  %.not = icmp eq i8 %5, 0
  br i1 %.not, label %10, label %6

6:                                                ; preds = %2
  %7 = getelementptr inbounds i8, ptr %0, i64 240
  %8 = load double, ptr %7, align 8
  %9 = fmul double %8, %1
  store double %9, ptr %7, align 8
  br label %17

10:                                               ; preds = %2
  %11 = getelementptr inbounds i8, ptr %0, i64 56
  %12 = load ptr, ptr %11, align 8
  %13 = getelementptr inbounds i8, ptr %12, i64 12
  %14 = load i32, ptr %13, align 4
  %15 = getelementptr inbounds i8, ptr %0, i64 216
  %16 = load ptr, ptr %15, align 8
  tail call void @_ZN5Ipopt10IpBlasScalEidPdi(i32 noundef %14, double noundef %1, ptr noundef %16, i32 noundef 1)
  br label %17

17:                                               ; preds = %10, %6
  ret void
}